target datalayout = "e-m:e-p270:32:32-p271:32:32-p272:64:64-i64:64-i128:128-f80:128-n8:16:32:64-S128"
target triple = "x86_64-pc-linux-gnu"

%struct._zval_struct = type { %union._zend_value, %union.anon, %union.anon.2 }
%union._zend_value = type { i64 }
%union.anon = type { i32 }
%union.anon.2 = type { i32 }
%struct._zend_op = type { ptr, %union._znode_op, %union._znode_op, %union._znode_op, i32, i32, i8, i8, i8, i8 }
%union._znode_op = type { i32 }
%struct._zend_refcounted_h = type { i32, %union.anon.3 }
%union.anon.3 = type { i32 }
%struct._zend_execute_data = type { ptr, ptr, ptr, ptr, %struct._zval_struct, ptr, ptr, ptr, ptr }
%struct._zend_string = type { %struct._zend_refcounted_h, i64, i64, [1 x i8] }

@.str = private unnamed_addr constant [24 x i8] c"Undefined array key %ld\00", align 1
@.str.1 = private unnamed_addr constant [25 x i8] c"Undefined array key \22%s\22\00", align 1

; Function Attrs: nounwind uwtable
define hidden void @zend_jit_undefined_string_key(ptr noundef %0) #0 {
  %2 = alloca i1, align 1
  %3 = alloca ptr, align 8
  %4 = alloca i64, align 8
  %5 = alloca ptr, align 8
  %6 = alloca ptr, align 8
  %7 = alloca ptr, align 8
  %8 = alloca ptr, align 8
  %9 = alloca ptr, align 8
  %10 = alloca ptr, align 8
  %11 = alloca i64, align 8
  store ptr %0, ptr %7, align 8
  %12 = load ptr, ptr %7, align 8
  %13 = getelementptr inbounds %struct._zend_execute_data, ptr %12, i32 0, i32 0
  %14 = load ptr, ptr %13, align 8
  store ptr %14, ptr %8, align 8
  %15 = load ptr, ptr %7, align 8
  %16 = load ptr, ptr %8, align 8
  %17 = getelementptr inbounds %struct._zend_op, ptr %16, i32 0, i32 3
  %18 = load i32, ptr %17, align 8
  %19 = sext i32 %18 to i64
  %20 = getelementptr inbounds i8, ptr %15, i64 %19
  store ptr %20, ptr %9, align 8
  %21 = load ptr, ptr %8, align 8
  %22 = getelementptr inbounds %struct._zend_op, ptr %21, i32 0, i32 8
  %23 = load i8, ptr %22, align 2
  %24 = zext i8 %23 to i32
  %25 = icmp eq i32 %24, 1
  br i1 %25, label %26, label %33

26:                                               ; preds = %1
  %27 = load ptr, ptr %8, align 8
  %28 = load ptr, ptr %8, align 8
  %29 = getelementptr inbounds %struct._zend_op, ptr %28, i32 0, i32 2
  %30 = load i32, ptr %29, align 4
  %31 = sext i32 %30 to i64
  %32 = getelementptr inbounds i8, ptr %27, i64 %31
  store ptr %32, ptr %10, align 8
  br label %40

33:                                               ; preds = %1
  %34 = load ptr, ptr %7, align 8
  %35 = load ptr, ptr %8, align 8
  %36 = getelementptr inbounds %struct._zend_op, ptr %35, i32 0, i32 2
  %37 = load i32, ptr %36, align 4
  %38 = sext i32 %37 to i64
  %39 = getelementptr inbounds i8, ptr %34, i64 %38
  store ptr %39, ptr %10, align 8
  br label %40

40:                                               ; preds = %33, %26
  %41 = load ptr, ptr %10, align 8
  %42 = getelementptr inbounds %struct._zval_struct, ptr %41, i32 0, i32 0
  %43 = load ptr, ptr %42, align 8
  %44 = getelementptr inbounds %struct._zend_string, ptr %43, i32 0, i32 3
  %45 = getelementptr inbounds [1 x i8], ptr %44, i64 0, i64 0
  %46 = load ptr, ptr %10, align 8
  %47 = getelementptr inbounds %struct._zval_struct, ptr %46, i32 0, i32 0
  %48 = load ptr, ptr %47, align 8
  %49 = getelementptr inbounds %struct._zend_string, ptr %48, i32 0, i32 2
  %50 = load i64, ptr %49, align 8
  store ptr %45, ptr %3, align 8
  store i64 %50, ptr %4, align 8
  store ptr %11, ptr %5, align 8
  %51 = load ptr, ptr %3, align 8
  store ptr %51, ptr %6, align 8
  %52 = load ptr, ptr %6, align 8
  %53 = load i8, ptr %52, align 1
  %54 = sext i8 %53 to i32
  %55 = icmp sgt i32 %54, 57
  br i1 %55, label %56, label %57

56:                                               ; preds = %40
  store i1 false, ptr %2, align 1
  br label %87

57:                                               ; preds = %40
  %58 = load ptr, ptr %6, align 8
  %59 = load i8, ptr %58, align 1
  %60 = sext i8 %59 to i32
  %61 = icmp slt i32 %60, 48
  br i1 %61, label %62, label %82

62:                                               ; preds = %57
  %63 = load ptr, ptr %6, align 8
  %64 = load i8, ptr %63, align 1
  %65 = sext i8 %64 to i32
  %66 = icmp ne i32 %65, 45
  br i1 %66, label %67, label %68

67:                                               ; preds = %62
  store i1 false, ptr %2, align 1
  br label %87

68:                                               ; preds = %62
  %69 = load ptr, ptr %6, align 8
  %70 = getelementptr inbounds i8, ptr %69, i32 1
  store ptr %70, ptr %6, align 8
  %71 = load ptr, ptr %6, align 8
  %72 = load i8, ptr %71, align 1
  %73 = sext i8 %72 to i32
  %74 = icmp sgt i32 %73, 57
  br i1 %74, label %80, label %75

75:                                               ; preds = %68
  %76 = load ptr, ptr %6, align 8
  %77 = load i8, ptr %76, align 1
  %78 = sext i8 %77 to i32
  %79 = icmp slt i32 %78, 48
  br i1 %79, label %80, label %81

80:                                               ; preds = %75, %68
  store i1 false, ptr %2, align 1
  br label %87

81:                                               ; preds = %75
  br label %82

82:                                               ; preds = %81, %57
  %83 = load ptr, ptr %3, align 8
  %84 = load i64, ptr %4, align 8
  %85 = load ptr, ptr %5, align 8
  %86 = call zeroext i1 @_zend_handle_numeric_str_ex(ptr noundef %83, i64 noundef %84, ptr noundef %85) #4
  store i1 %86, ptr %2, align 1
  br label %87

87:                                               ; preds = %82, %80, %67, %56
  %88 = load i1, ptr %2, align 1
  br i1 %88, label %89, label %91

89:                                               ; preds = %87
  %90 = load i64, ptr %11, align 8
  call void (i32, ptr, ...) @zend_error(i32 noundef 2, ptr noundef @.str, i64 noundef %90)
  br label %97

91:                                               ; preds = %87
  %92 = load ptr, ptr %10, align 8
  %93 = getelementptr inbounds %struct._zval_struct, ptr %92, i32 0, i32 0
  %94 = load ptr, ptr %93, align 8
  %95 = getelementptr inbounds %struct._zend_string, ptr %94, i32 0, i32 3
  %96 = getelementptr inbounds [1 x i8], ptr %95, i64 0, i64 0
  call void (i32, ptr, ...) @zend_error(i32 noundef 2, ptr noundef @.str.1, ptr noundef %96)
  br label %97

97:                                               ; preds = %91, %89
  br label %98

98:                                               ; preds = %97
  %99 = load ptr, ptr %9, align 8
  %100 = getelementptr inbounds %struct._zval_struct, ptr %99, i32 0, i32 1
  store i32 1, ptr %100, align 8
  br label %101

101:                                              ; preds = %98
  ret void
}