; Function Attrs: nounwind uwtable
define hidden void @zend_jit_undefined_string_key(ptr nocapture noundef %0) local_unnamed_addr #0 {
  %2 = alloca i64, align 8
  %3 = load ptr, ptr %0, align 8
  %4 = getelementptr inbounds i8, ptr %3, i64 16
  %5 = load i32, ptr %4, align 8
  %6 = getelementptr inbounds i8, ptr %3, i64 30
  %7 = load i8, ptr %6, align 2
  %8 = icmp eq i8 %7, 1
  %9 = getelementptr inbounds i8, ptr %3, i64 12
  %10 = load i32, ptr %9, align 4
  %11 = sext i32 %10 to i64
  %. = select i1 %8, ptr %3, ptr %0
  %12 = getelementptr inbounds i8, ptr %., i64 %11
  %13 = load ptr, ptr %12, align 8
  %14 = getelementptr inbounds i8, ptr %13, i64 24
  %15 = getelementptr inbounds i8, ptr %13, i64 16
  %16 = load i64, ptr %15, align 8
  %17 = load i8, ptr %14, align 1
  %18 = icmp sgt i8 %17, 57
  br i1 %18, label %.critedge, label %19

19:                                               ; preds = %1
  %20 = icmp slt i8 %17, 48
  br i1 %20, label %21, label %26

21:                                               ; preds = %19
  %.not = icmp eq i8 %17, 45
  br i1 %.not, label %22, label %.critedge

22:                                               ; preds = %21
  %23 = getelementptr inbounds i8, ptr %13, i64 25
  %24 = load i8, ptr %23, align 1
  %25 = add i8 %24, -58
  %or.cond = icmp ult i8 %25, -10
  br i1 %or.cond, label %.critedge, label %26

26:                                               ; preds = %22, %19
  %27 = call zeroext i1 @_zend_handle_numeric_str_ex(ptr noundef nonnull %14, i64 noundef %16, ptr noundef nonnull %2) #6
  br i1 %27, label %28, label %..critedge_crit_edge

..critedge_crit_edge:                             ; preds = %26
  %.pre = load ptr, ptr %12, align 8
  br label %.critedge

28:                                               ; preds = %26
  %29 = load i64, ptr %2, align 8
  call void (i32, ptr, ...) @zend_error(i32 noundef 2, ptr noundef nonnull @.str, i64 noundef %29) #6
  br label %32

.critedge:                                        ; preds = %..critedge_crit_edge, %1, %21, %22
  %30 = phi ptr [ %.pre, %..critedge_crit_edge ], [ %13, %1 ], [ %13, %21 ], [ %13, %22 ]
  %31 = getelementptr inbounds i8, ptr %30, i64 24
  call void (i32, ptr, ...) @zend_error(i32 noundef 2, ptr noundef nonnull @.str.1, ptr noundef nonnull %31) #6
  br label %32

32:                                               ; preds = %28, %.critedge
  %33 = sext i32 %5 to i64
  %34 = getelementptr inbounds i8, ptr %0, i64 %33
  %35 = getelementptr inbounds i8, ptr %34, i64 8
  store i32 1, ptr %35, align 8
  ret void
}